target datalayout = "e-m:e-p270:32:32-p271:32:32-p272:64:64-i64:64-i128:128-f80:128-n8:16:32:64-S128"
target triple = "x86_64-pc-linux-gnu"

%struct.run_command_args_t = type { ptr, ptr, ptr, i8, i32, i32, i8, ptr, ptr, ptr, ptr, i64, ptr, i8 }

@.str.10 = private unnamed_addr constant [15 x i8] c"/usr/bin/xauth\00", align 1
@.str.11 = private unnamed_addr constant [6 x i8] c"xauth\00", align 1
@.str.14 = private unnamed_addr constant [11 x i8] c"x11_util.c\00", align 1
@__const.x11_set_xauth.template = private unnamed_addr constant [25 x i8] c"/tmp/xauth-source-XXXXXX\00", align 16
@.str.19 = private unnamed_addr constant [29 x i8] c"%s: gethostname() failed: %m\00", align 1
@__func__.x11_set_xauth = private unnamed_addr constant [14 x i8] c"x11_set_xauth\00", align 1
@.str.20 = private unnamed_addr constant [31 x i8] c"%s: could not create temp file\00", align 1
@.str.21 = private unnamed_addr constant [38 x i8] c"add %s/unix:%u MIT-MAGIC-COOKIE-1 %s\0A\00", align 1
@.str.22 = private unnamed_addr constant [45 x i8] c"%s:%d: %s: safe_write (%zu of %d) failed: %m\00", align 1
@.str.23 = private unnamed_addr constant [48 x i8] c"%s:%d: %s: safe_write (%zu of %d) partial write\00", align 1
@.str.24 = private unnamed_addr constant [3 x i8] c"-v\00", align 1
@.str.25 = private unnamed_addr constant [3 x i8] c"-f\00", align 1
@.str.26 = private unnamed_addr constant [7 x i8] c"source\00", align 1
@.str.27 = private unnamed_addr constant [26 x i8] c"%s: result from xauth: %s\00", align 1
@.str.28 = private unnamed_addr constant [41 x i8] c"%s: could not write temporary xauth file\00", align 1

; Function Attrs: nounwind uwtable
define dso_local i32 @x11_set_xauth(ptr noundef %0, ptr noundef %1, i16 noundef zeroext %2) #0 {
  %4 = alloca i32, align 4
  %5 = alloca ptr, align 8
  %6 = alloca ptr, align 8
  %7 = alloca i16, align 2
  %8 = alloca i32, align 4
  %9 = alloca i32, align 4
  %10 = alloca ptr, align 8
  %11 = alloca ptr, align 8
  %12 = alloca [25 x i8], align 16
  %13 = alloca ptr, align 8
  %14 = alloca [64 x i8], align 16
  %15 = alloca i32, align 4
  %16 = alloca %struct.run_command_args_t, align 8
  %17 = alloca i64, align 8
  %18 = alloca ptr, align 8
  %19 = alloca i32, align 4
  %20 = alloca i32, align 4
  store ptr %0, ptr %5, align 8
  store ptr %1, ptr %6, align 8
  store i16 %2, ptr %7, align 2
  call void @llvm.lifetime.start.p0(i64 4, ptr %8) #11
  store i32 0, ptr %8, align 4
  call void @llvm.lifetime.start.p0(i64 4, ptr %9) #11
  call void @llvm.lifetime.start.p0(i64 8, ptr %10) #11
  call void @llvm.lifetime.start.p0(i64 8, ptr %11) #11
  call void @llvm.lifetime.start.p0(i64 25, ptr %12) #11
  call void @llvm.memcpy.p0.p0.i64(ptr align 16 %12, ptr align 16 @__const.x11_set_xauth.template, i64 25, i1 false)
  call void @llvm.lifetime.start.p0(i64 8, ptr %13) #11
  store ptr null, ptr %13, align 8
  call void @llvm.lifetime.start.p0(i64 64, ptr %14) #11
  call void @llvm.lifetime.start.p0(i64 4, ptr %15) #11
  call void @llvm.lifetime.start.p0(i64 96, ptr %16) #11
  %21 = getelementptr inbounds nuw %struct.run_command_args_t, ptr %16, i32 0, i32 0
  store ptr null, ptr %21, align 8
  %22 = getelementptr inbounds nuw %struct.run_command_args_t, ptr %16, i32 0, i32 1
  store ptr null, ptr %22, align 8
  %23 = getelementptr inbounds nuw %struct.run_command_args_t, ptr %16, i32 0, i32 2
  store ptr null, ptr %23, align 8
  %24 = getelementptr inbounds nuw %struct.run_command_args_t, ptr %16, i32 0, i32 3
  store i8 0, ptr %24, align 8
  %25 = getelementptr i8, ptr %16, i64 25
  call void @llvm.memset.p0.i64(ptr align 1 %25, i8 0, i64 3, i1 false)
  %26 = getelementptr inbounds nuw %struct.run_command_args_t, ptr %16, i32 0, i32 4
  store i32 0, ptr %26, align 4
  %27 = getelementptr inbounds nuw %struct.run_command_args_t, ptr %16, i32 0, i32 5
  store i32 10000, ptr %27, align 8
  %28 = getelementptr inbounds nuw %struct.run_command_args_t, ptr %16, i32 0, i32 6
  store i8 0, ptr %28, align 4
  %29 = getelementptr i8, ptr %16, i64 37
  call void @llvm.memset.p0.i64(ptr align 1 %29, i8 0, i64 3, i1 false)
  %30 = getelementptr inbounds nuw %struct.run_command_args_t, ptr %16, i32 0, i32 7
  store ptr null, ptr %30, align 8
  %31 = getelementptr inbounds nuw %struct.run_command_args_t, ptr %16, i32 0, i32 8
  store ptr @.str.10, ptr %31, align 8
  %32 = getelementptr inbounds nuw %struct.run_command_args_t, ptr %16, i32 0, i32 9
  store ptr @.str.11, ptr %32, align 8
  %33 = getelementptr inbounds nuw %struct.run_command_args_t, ptr %16, i32 0, i32 10
  store ptr %9, ptr %33, align 8
  %34 = getelementptr inbounds nuw %struct.run_command_args_t, ptr %16, i32 0, i32 11
  store i64 0, ptr %34, align 8
  %35 = getelementptr inbounds nuw %struct.run_command_args_t, ptr %16, i32 0, i32 12
  store ptr null, ptr %35, align 8
  %36 = getelementptr inbounds nuw %struct.run_command_args_t, ptr %16, i32 0, i32 13
  store i8 0, ptr %36, align 8
  %37 = getelementptr i8, ptr %16, i64 89
  call void @llvm.memset.p0.i64(ptr align 1 %37, i8 0, i64 7, i1 false)
  %38 = getelementptr inbounds [64 x i8], ptr %14, i64 0, i64 0
  %39 = call i32 @gethostname(ptr noundef %38, i64 noundef 64) #11
  %40 = icmp ne i32 %39, 0
  br i1 %40, label %41, label %42

41:                                               ; preds = %3
  call void (ptr, ...) @fatal(ptr noundef @.str.19, ptr noundef @__func__.x11_set_xauth) #14
  unreachable

42:                                               ; preds = %3
  %43 = call i32 @umask(i32 noundef 63) #11
  %44 = getelementptr inbounds [25 x i8], ptr %12, i64 0, i64 0
  %45 = call i32 @mkstemp(ptr noundef %44)
  store i32 %45, ptr %15, align 4
  %46 = icmp slt i32 %45, 0
  br i1 %46, label %47, label %48

47:                                               ; preds = %42
  call void (ptr, ...) @fatal(ptr noundef @.str.20, ptr noundef @__func__.x11_set_xauth) #14
  unreachable

48:                                               ; preds = %42
  %49 = getelementptr inbounds [64 x i8], ptr %14, i64 0, i64 0
  %50 = load i16, ptr %7, align 2
  %51 = zext i16 %50 to i32
  %52 = load ptr, ptr %6, align 8
  call void (ptr, ptr, ...) @_xstrfmtcat(ptr noundef %13, ptr noundef @.str.21, ptr noundef %49, i32 noundef %51, ptr noundef %52)
  br label %53

53:                                               ; preds = %48
  call void @llvm.lifetime.start.p0(i64 8, ptr %17) #11
  %54 = load ptr, ptr %13, align 8
  %55 = call i64 @strlen(ptr noundef %54) #13
  store i64 %55, ptr %17, align 8
  call void @llvm.lifetime.start.p0(i64 8, ptr %18) #11
  %56 = load ptr, ptr %13, align 8
  store ptr %56, ptr %18, align 8
  call void @llvm.lifetime.start.p0(i64 4, ptr %19) #11
  br label %57

57:                                               ; preds = %119, %76, %53
  %58 = load i64, ptr %17, align 8
  %59 = icmp ugt i64 %58, 0
  br i1 %59, label %60, label %120

60:                                               ; preds = %57
  %61 = load i32, ptr %15, align 4
  %62 = load ptr, ptr %18, align 8
  %63 = load i64, ptr %17, align 8
  %64 = call i64 @write(i32 noundef %61, ptr noundef %62, i64 noundef %63)
  %65 = trunc i64 %64 to i32
  store i32 %65, ptr %19, align 4
  %66 = load i32, ptr %19, align 4
  %67 = icmp slt i32 %66, 0
  br i1 %67, label %68, label %92

68:                                               ; preds = %60
  %69 = call ptr @__errno_location() #15
  %70 = load i32, ptr %69, align 4
  %71 = icmp eq i32 %70, 11
  br i1 %71, label %76, label %72

72:                                               ; preds = %68
  %73 = call ptr @__errno_location() #15
  %74 = load i32, ptr %73, align 4
  %75 = icmp eq i32 %74, 4
  br i1 %75, label %76, label %77

76:                                               ; preds = %72, %68
  br label %57, !llvm.loop !8

77:                                               ; preds = %72
  br label %78

78:                                               ; preds = %77
  br label %79

79:                                               ; preds = %78
  %80 = call i32 @get_log_level()
  %81 = icmp sge i32 %80, 5
  br i1 %81, label %82, label %87

82:                                               ; preds = %79
  %83 = load i64, ptr %17, align 8
  %84 = load ptr, ptr %13, align 8
  %85 = call i64 @strlen(ptr noundef %84) #13
  %86 = trunc i64 %85 to i32
  call void (i32, ptr, ...) @log_var(i32 noundef 5, ptr noundef @.str.22, ptr noundef @.str.14, i32 noundef 269, ptr noundef @__func__.x11_set_xauth, i64 noundef %83, i32 noundef %86)
  br label %87

87:                                               ; preds = %82, %79
  br label %88

88:                                               ; preds = %87
  br label %89

89:                                               ; preds = %88
  br label %90

90:                                               ; preds = %89
  br label %91

91:                                               ; preds = %90
  store i32 10, ptr %20, align 4
  br label %121

92:                                               ; preds = %60
  %93 = load i32, ptr %19, align 4
  %94 = load ptr, ptr %18, align 8
  %95 = sext i32 %93 to i64
  %96 = getelementptr inbounds i8, ptr %94, i64 %95
  store ptr %96, ptr %18, align 8
  %97 = load i32, ptr %19, align 4
  %98 = sext i32 %97 to i64
  %99 = load i64, ptr %17, align 8
  %100 = sub i64 %99, %98
  store i64 %100, ptr %17, align 8
  %101 = load i64, ptr %17, align 8
  %102 = icmp ugt i64 %101, 0
  br i1 %102, label %103, label %118

103:                                              ; preds = %92
  br label %104

104:                                              ; preds = %103
  br label %105

105:                                              ; preds = %104
  %106 = call i32 @get_log_level()
  %107 = icmp sge i32 %106, 7
  br i1 %107, label %108, label %113

108:                                              ; preds = %105
  %109 = load i64, ptr %17, align 8
  %110 = load ptr, ptr %13, align 8
  %111 = call i64 @strlen(ptr noundef %110) #13
  %112 = trunc i64 %111 to i32
  call void (i32, ptr, ...) @log_var(i32 noundef 7, ptr noundef @.str.23, ptr noundef @.str.14, i32 noundef 269, ptr noundef @__func__.x11_set_xauth, i64 noundef %109, i32 noundef %112)
  br label %113

113:                                              ; preds = %108, %105
  br label %114

114:                                              ; preds = %113
  br label %115

115:                                              ; preds = %114
  br label %116

116:                                              ; preds = %115
  br label %117

117:                                              ; preds = %116
  br label %118

118:                                              ; preds = %117, %92
  br label %119

119:                                              ; preds = %118
  br label %57, !llvm.loop !8

120:                                              ; preds = %57
  store i32 0, ptr %20, align 4
  br label %121

121:                                              ; preds = %91, %120
  call void @llvm.lifetime.end.p0(i64 4, ptr %19) #11
  call void @llvm.lifetime.end.p0(i64 8, ptr %18) #11
  call void @llvm.lifetime.end.p0(i64 8, ptr %17) #11
  %122 = load i32, ptr %20, align 4
  switch i32 %122, label %184 [
    i32 0, label %123
    i32 10, label %183
  ]

123:                                              ; preds = %121
  br label %124

124:                                              ; preds = %123
  br label %125

125:                                              ; preds = %124
  call void @slurm_xfree(ptr noundef %13)
  %126 = load i32, ptr %15, align 4
  %127 = call i32 @close(i32 noundef %126)
  %128 = call ptr @slurm_xcalloc(i64 noundef 1, i64 noundef 80, i1 noundef zeroext true, i1 noundef zeroext false, ptr noundef @.str.14, i32 noundef 273, ptr noundef @__func__.x11_set_xauth)
  store ptr %128, ptr %11, align 8
  %129 = load ptr, ptr %11, align 8
  %130 = load i32, ptr %8, align 4
  %131 = add nsw i32 %130, 1
  store i32 %131, ptr %8, align 4
  %132 = sext i32 %130 to i64
  %133 = getelementptr inbounds ptr, ptr %129, i64 %132
  store ptr @.str.11, ptr %133, align 8
  %134 = load ptr, ptr %11, align 8
  %135 = load i32, ptr %8, align 4
  %136 = add nsw i32 %135, 1
  store i32 %136, ptr %8, align 4
  %137 = sext i32 %135 to i64
  %138 = getelementptr inbounds ptr, ptr %134, i64 %137
  store ptr @.str.24, ptr %138, align 8
  %139 = load ptr, ptr %11, align 8
  %140 = load i32, ptr %8, align 4
  %141 = add nsw i32 %140, 1
  store i32 %141, ptr %8, align 4
  %142 = sext i32 %140 to i64
  %143 = getelementptr inbounds ptr, ptr %139, i64 %142
  store ptr @.str.25, ptr %143, align 8
  %144 = load ptr, ptr %5, align 8
  %145 = load ptr, ptr %11, align 8
  %146 = load i32, ptr %8, align 4
  %147 = add nsw i32 %146, 1
  store i32 %147, ptr %8, align 4
  %148 = sext i32 %146 to i64
  %149 = getelementptr inbounds ptr, ptr %145, i64 %148
  store ptr %144, ptr %149, align 8
  %150 = load ptr, ptr %11, align 8
  %151 = load i32, ptr %8, align 4
  %152 = add nsw i32 %151, 1
  store i32 %152, ptr %8, align 4
  %153 = sext i32 %151 to i64
  %154 = getelementptr inbounds ptr, ptr %150, i64 %153
  store ptr @.str.26, ptr %154, align 8
  %155 = getelementptr inbounds [25 x i8], ptr %12, i64 0, i64 0
  %156 = load ptr, ptr %11, align 8
  %157 = load i32, ptr %8, align 4
  %158 = add nsw i32 %157, 1
  store i32 %158, ptr %8, align 4
  %159 = sext i32 %157 to i64
  %160 = getelementptr inbounds ptr, ptr %156, i64 %159
  store ptr %155, ptr %160, align 8
  %161 = load ptr, ptr %11, align 8
  %162 = load i32, ptr %8, align 4
  %163 = add nsw i32 %162, 1
  store i32 %163, ptr %8, align 4
  %164 = sext i32 %162 to i64
  %165 = getelementptr inbounds ptr, ptr %161, i64 %164
  store ptr null, ptr %165, align 8
  %166 = load ptr, ptr %11, align 8
  %167 = getelementptr inbounds nuw %struct.run_command_args_t, ptr %16, i32 0, i32 7
  store ptr %166, ptr %167, align 8
  %168 = call ptr @run_command(ptr noundef %16)
  store ptr %168, ptr %10, align 8
  %169 = getelementptr inbounds [25 x i8], ptr %12, i64 0, i64 0
  %170 = call i32 @unlink(ptr noundef %169) #11
  call void @slurm_xfree(ptr noundef %11)
  br label %171

171:                                              ; preds = %125
  br label %172

172:                                              ; preds = %171
  %173 = call i32 @get_log_level()
  %174 = icmp sge i32 %173, 6
  br i1 %174, label %175, label %177

175:                                              ; preds = %172
  %176 = load ptr, ptr %10, align 8
  call void (i32, ptr, ...) @log_var(i32 noundef 6, ptr noundef @.str.27, ptr noundef @__func__.x11_set_xauth, ptr noundef %176)
  br label %177

177:                                              ; preds = %175, %172
  br label %178

178:                                              ; preds = %177
  br label %179

179:                                              ; preds = %178
  br label %180

180:                                              ; preds = %179
  br label %181

181:                                              ; preds = %180
  call void @slurm_xfree(ptr noundef %10)
  %182 = load i32, ptr %9, align 4
  store i32 %182, ptr %4, align 4
  store i32 1, ptr %20, align 4
  br label %184

183:                                              ; preds = %121
  call void (ptr, ...) @fatal(ptr noundef @.str.28, ptr noundef @__func__.x11_set_xauth) #14
  unreachable

184:                                              ; preds = %181, %121
  call void @llvm.lifetime.end.p0(i64 96, ptr %16) #11
  call void @llvm.lifetime.end.p0(i64 4, ptr %15) #11
  call void @llvm.lifetime.end.p0(i64 64, ptr %14) #11
  call void @llvm.lifetime.end.p0(i64 8, ptr %13) #11
  call void @llvm.lifetime.end.p0(i64 25, ptr %12) #11
  call void @llvm.lifetime.end.p0(i64 8, ptr %11) #11
  call void @llvm.lifetime.end.p0(i64 8, ptr %10) #11
  call void @llvm.lifetime.end.p0(i64 4, ptr %9) #11
  call void @llvm.lifetime.end.p0(i64 4, ptr %8) #11
  %185 = load i32, ptr %4, align 4
  ret i32 %185
}