; Function Attrs: nounwind uwtable
define dso_local i32 @x11_set_xauth(ptr noundef %0, ptr noundef %1, i16 noundef zeroext %2) local_unnamed_addr #0 {
  %4 = alloca i32, align 4
  %5 = alloca ptr, align 8
  %6 = alloca ptr, align 8
  %7 = alloca [25 x i8], align 16
  %8 = alloca ptr, align 8
  %9 = alloca [64 x i8], align 16
  %10 = alloca %struct.run_command_args_t, align 8
  call void @llvm.lifetime.start.p0(i64 4, ptr nonnull %4) #15
  call void @llvm.lifetime.start.p0(i64 8, ptr nonnull %5) #15
  call void @llvm.lifetime.start.p0(i64 8, ptr nonnull %6) #15
  call void @llvm.lifetime.start.p0(i64 25, ptr nonnull %7) #15
  call void @llvm.memcpy.p0.p0.i64(ptr noundef nonnull align 16 dereferenceable(25) %7, ptr noundef nonnull align 16 dereferenceable(25) @__const.x11_set_xauth.template, i64 25, i1 false)
  call void @llvm.lifetime.start.p0(i64 8, ptr nonnull %8) #15
  store ptr null, ptr %8, align 8
  call void @llvm.lifetime.start.p0(i64 64, ptr nonnull %9) #15
  call void @llvm.lifetime.start.p0(i64 96, ptr nonnull %10) #15
  %11 = getelementptr inbounds nuw i8, ptr %10, i64 32
  call void @llvm.memset.p0.i64(ptr noundef nonnull align 8 dereferenceable(32) %10, i8 0, i64 32, i1 false)
  store i32 10000, ptr %11, align 8
  %12 = getelementptr inbounds nuw i8, ptr %10, i64 36
  %13 = getelementptr inbounds nuw i8, ptr %10, i64 40
  %14 = getelementptr inbounds nuw i8, ptr %10, i64 48
  store i32 0, ptr %12, align 4
  store ptr @.str.10, ptr %14, align 8
  %15 = getelementptr inbounds nuw i8, ptr %10, i64 56
  store ptr @.str.11, ptr %15, align 8
  %16 = getelementptr inbounds nuw i8, ptr %10, i64 64
  store ptr %4, ptr %16, align 8
  %17 = getelementptr inbounds nuw i8, ptr %10, i64 72
  call void @llvm.memset.p0.i64(ptr noundef nonnull align 8 dereferenceable(24) %17, i8 0, i64 24, i1 false)
  %18 = call i32 @gethostname(ptr noundef nonnull %9, i64 noundef 64) #15
  %.not = icmp eq i32 %18, 0
  br i1 %.not, label %20, label %19

19:                                               ; preds = %3
  call void (ptr, ...) @fatal(ptr noundef nonnull @.str.19, ptr noundef nonnull @__func__.x11_set_xauth) #18
  unreachable

20:                                               ; preds = %3
  %21 = call i32 @umask(i32 noundef 63) #15
  %22 = call i32 @mkstemp(ptr noundef nonnull %7) #15
  %23 = icmp slt i32 %22, 0
  br i1 %23, label %24, label %25

24:                                               ; preds = %20
  call void (ptr, ...) @fatal(ptr noundef nonnull @.str.20, ptr noundef nonnull @__func__.x11_set_xauth) #18
  unreachable

25:                                               ; preds = %20
  %26 = zext i16 %2 to i32
  call void (ptr, ptr, ...) @_xstrfmtcat(ptr noundef nonnull %8, ptr noundef nonnull @.str.21, ptr noundef nonnull %9, i32 noundef %26, ptr noundef %1) #15
  %27 = load ptr, ptr %8, align 8
  %28 = call i64 @strlen(ptr noundef nonnull dereferenceable(1) %27) #17
  %.not3145 = icmp eq i64 %28, 0
  br i1 %.not3145, label %.outer._crit_edge, label %.lr.ph.split

.lr.ph.split:                                     ; preds = %25, %.lr.ph.split.backedge
  %.025.ph48 = phi ptr [ %44, %.lr.ph.split.backedge ], [ %27, %25 ]
  %.026.ph46 = phi i64 [ %45, %.lr.ph.split.backedge ], [ %28, %25 ]
  %29 = call i64 @write(i32 noundef %22, ptr noundef %.025.ph48, i64 noundef %.026.ph46) #15
  %30 = and i64 %29, 2147483648
  %.not3243 = icmp eq i64 %30, 0
  br i1 %.not3243, label %.split.us, label %.lr.ph44

.lr.ph44:                                         ; preds = %.lr.ph.split
  %31 = tail call ptr @__errno_location() #19
  br label %32

32:                                               ; preds = %.lr.ph44, %34
  %33 = load i32, ptr %31, align 4
  switch i32 %33, label %.split38.us [
    i32 11, label %34
    i32 4, label %34
  ]

34:                                               ; preds = %32, %32
  %35 = call i64 @write(i32 noundef %22, ptr noundef %.025.ph48, i64 noundef %.026.ph46) #15
  %36 = and i64 %35, 2147483648
  %.not32 = icmp eq i64 %36, 0
  br i1 %.not32, label %.split.us, label %32

.split38.us:                                      ; preds = %32
  %37 = call i32 @get_log_level() #15
  %38 = icmp sgt i32 %37, 4
  br i1 %38, label %39, label %66

39:                                               ; preds = %.split38.us
  %40 = load ptr, ptr %8, align 8
  %41 = call i64 @strlen(ptr noundef nonnull dereferenceable(1) %40) #17
  %42 = trunc i64 %41 to i32
  call void (i32, ptr, ...) @log_var(i32 noundef 5, ptr noundef nonnull @.str.22, ptr noundef nonnull @.str.14, i32 noundef 269, ptr noundef nonnull @__func__.x11_set_xauth, i64 noundef %.026.ph46, i32 noundef %42) #15
  br label %66

.split.us:                                        ; preds = %34, %.lr.ph.split
  %.us-phi = phi i64 [ %29, %.lr.ph.split ], [ %35, %34 ]
  %43 = and i64 %.us-phi, 2147483647
  %44 = getelementptr inbounds nuw i8, ptr %.025.ph48, i64 %43
  %45 = sub i64 %.026.ph46, %43
  %.not33 = icmp eq i64 %45, 0
  br i1 %.not33, label %.outer._crit_edge, label %46

46:                                               ; preds = %.split.us
  %47 = call i32 @get_log_level() #15
  %48 = icmp sgt i32 %47, 6
  br i1 %48, label %49, label %.lr.ph.split.backedge

49:                                               ; preds = %46
  %50 = load ptr, ptr %8, align 8
  %51 = call i64 @strlen(ptr noundef nonnull dereferenceable(1) %50) #17
  %52 = trunc i64 %51 to i32
  call void (i32, ptr, ...) @log_var(i32 noundef 7, ptr noundef nonnull @.str.23, ptr noundef nonnull @.str.14, i32 noundef 269, ptr noundef nonnull @__func__.x11_set_xauth, i64 noundef %45, i32 noundef %52) #15
  br label %.lr.ph.split.backedge

.lr.ph.split.backedge:                            ; preds = %49, %46
  br label %.lr.ph.split, !llvm.loop !8

.outer._crit_edge:                                ; preds = %.split.us, %25
  call void @slurm_xfree(ptr noundef nonnull %8) #15
  %53 = call i32 @close(i32 noundef %22) #15
  %54 = call ptr @slurm_xcalloc(i64 noundef 1, i64 noundef 80, i1 noundef zeroext true, i1 noundef zeroext false, ptr noundef nonnull @.str.14, i32 noundef 273, ptr noundef nonnull @__func__.x11_set_xauth) #15
  store ptr %54, ptr %6, align 8
  store ptr @.str.11, ptr %54, align 8
  %55 = getelementptr inbounds nuw i8, ptr %54, i64 8
  store ptr @.str.24, ptr %55, align 8
  %56 = getelementptr inbounds nuw i8, ptr %54, i64 16
  store ptr @.str.25, ptr %56, align 8
  %57 = getelementptr inbounds nuw i8, ptr %54, i64 24
  store ptr %0, ptr %57, align 8
  %58 = getelementptr inbounds nuw i8, ptr %54, i64 32
  store ptr @.str.26, ptr %58, align 8
  %59 = getelementptr inbounds nuw i8, ptr %54, i64 40
  store ptr %7, ptr %59, align 8
  %60 = getelementptr inbounds nuw i8, ptr %54, i64 48
  store ptr null, ptr %60, align 8
  store ptr %54, ptr %13, align 8
  %61 = call ptr @run_command(ptr noundef nonnull %10) #15
  store ptr %61, ptr %5, align 8
  %62 = call i32 @unlink(ptr noundef nonnull %7) #15
  call void @slurm_xfree(ptr noundef nonnull %6) #15
  %63 = call i32 @get_log_level() #15
  %64 = icmp sgt i32 %63, 5
  br i1 %64, label %65, label %67

65:                                               ; preds = %.outer._crit_edge
  call void (i32, ptr, ...) @log_var(i32 noundef 6, ptr noundef nonnull @.str.27, ptr noundef nonnull @__func__.x11_set_xauth, ptr noundef %61) #15
  br label %67

66:                                               ; preds = %39, %.split38.us
  call void (ptr, ...) @fatal(ptr noundef nonnull @.str.28, ptr noundef nonnull @__func__.x11_set_xauth) #18
  unreachable

67:                                               ; preds = %.outer._crit_edge, %65
  call void @slurm_xfree(ptr noundef nonnull %5) #15
  %68 = load i32, ptr %4, align 4
  call void @llvm.lifetime.end.p0(i64 96, ptr nonnull %10) #15
  call void @llvm.lifetime.end.p0(i64 64, ptr nonnull %9) #15
  call void @llvm.lifetime.end.p0(i64 8, ptr nonnull %8) #15
  call void @llvm.lifetime.end.p0(i64 25, ptr nonnull %7) #15
  call void @llvm.lifetime.end.p0(i64 8, ptr nonnull %6) #15
  call void @llvm.lifetime.end.p0(i64 8, ptr nonnull %5) #15
  call void @llvm.lifetime.end.p0(i64 4, ptr nonnull %4) #15
  ret i32 %68
}